; ModuleID = 'probe3.a25a218d-cgu.0'
source_filename = "probe3.a25a218d-cgu.0"
target datalayout = "e-m:e-p:32:32-Fi8-i64:64-v128:64:128-a:0:32-n32-S64"
target triple = "thumbv7em-none-unknown-eabihf"

; probe3::probe
; Function Attrs: nounwind
define dso_local void @_ZN6probe35probe17h369c7b00bb6f9affE() unnamed_addr #0 {
start:
; call core::f64::<impl f64>::to_int_unchecked
  %_1 = call i32 @"_ZN4core3f6421_$LT$impl$u20$f64$GT$16to_int_unchecked17h4bfb299cacf7500eE"(double 1.000000e+00) #2
  br label %bb1

bb1:                                              ; preds = %start
  ret void
}

; core::f64::<impl f64>::to_int_unchecked
; Function Attrs: inlinehint nounwind
define dso_local i32 @"_ZN4core3f6421_$LT$impl$u20$f64$GT$16to_int_unchecked17h4bfb299cacf7500eE"(double %self) unnamed_addr #1 {
start:
; call <f64 as core::convert::num::FloatToInt<i32>>::to_int_unchecked
  %0 = call i32 @"_ZN65_$LT$f64$u20$as$u20$core..convert..num..FloatToInt$LT$i32$GT$$GT$16to_int_unchecked17h0dcf137dc8537f68E"(double %self) #2
  br label %bb1

bb1:                                              ; preds = %start
  ret i32 %0
}

; <f64 as core::convert::num::FloatToInt<i32>>::to_int_unchecked
; Function Attrs: inlinehint nounwind
define internal i32 @"_ZN65_$LT$f64$u20$as$u20$core..convert..num..FloatToInt$LT$i32$GT$$GT$16to_int_unchecked17h0dcf137dc8537f68E"(double %self) unnamed_addr #1 {
start:
  %0 = alloca i32, align 4
  %1 = fptosi double %self to i32
  store i32 %1, i32* %0, align 4
  %2 = load i32, i32* %0, align 4
  br label %bb1

bb1:                                              ; preds = %start
  ret i32 %2
}

attributes #0 = { nounwind "frame-pointer"="all" "target-cpu"="generic" }
attributes #1 = { inlinehint nounwind "frame-pointer"="all" "target-cpu"="generic" }
attributes #2 = { nounwind }
